; Function Attrs: mustprogress uwtable
define void @_ZN18duckdb_fastpforlib8internal12__fastpack34EPKmPj(ptr noalias noundef %0, ptr noalias noundef initializes((0, 24)) %1) local_unnamed_addr #5 {
  tail call void @llvm.experimental.noalias.scope.decl(metadata !14518)
  tail call void @llvm.experimental.noalias.scope.decl(metadata !14521)
  %3 = load i64, ptr %0, align 8, !tbaa !9, !alias.scope !14518, !noalias !14521
  %4 = trunc i64 %3 to i32
  store i32 %4, ptr %1, align 4, !tbaa !7, !alias.scope !14521, !noalias !14518
  %5 = getelementptr inbounds nuw i8, ptr %1, i64 4
  %6 = lshr i64 %3, 32
  %7 = trunc nuw i64 %6 to i32
  %8 = and i32 %7, 3
  tail call void @llvm.experimental.noalias.scope.decl(metadata !14523)
  tail call void @llvm.experimental.noalias.scope.decl(metadata !14526)
  %9 = getelementptr inbounds nuw i8, ptr %0, i64 8
  %10 = load i64, ptr %9, align 8, !tbaa !9, !alias.scope !14528, !noalias !14529
  %.tr.i.i.i = trunc i64 %10 to i32
  %11 = shl i32 %.tr.i.i.i, 2
  %12 = or disjoint i32 %11, %8
  store i32 %12, ptr %5, align 4, !tbaa !7, !alias.scope !14529, !noalias !14528
  %13 = getelementptr inbounds nuw i8, ptr %1, i64 8
  %14 = lshr i64 %10, 30
  %15 = trunc i64 %14 to i32
  %16 = and i32 %15, 15
  tail call void @llvm.experimental.noalias.scope.decl(metadata !14530)
  tail call void @llvm.experimental.noalias.scope.decl(metadata !14533)
  %17 = getelementptr inbounds nuw i8, ptr %0, i64 16
  %18 = load i64, ptr %17, align 8, !tbaa !9, !alias.scope !14535, !noalias !14536
  %.tr.i.i.i.i = trunc i64 %18 to i32
  %19 = shl i32 %.tr.i.i.i.i, 4
  %20 = or disjoint i32 %19, %16
  store i32 %20, ptr %13, align 4, !tbaa !7, !alias.scope !14536, !noalias !14535
  %21 = getelementptr inbounds nuw i8, ptr %1, i64 12
  %22 = lshr i64 %18, 28
  %23 = trunc i64 %22 to i32
  %24 = and i32 %23, 63
  tail call void @llvm.experimental.noalias.scope.decl(metadata !14537)
  tail call void @llvm.experimental.noalias.scope.decl(metadata !14540)
  %25 = getelementptr inbounds nuw i8, ptr %0, i64 24
  %26 = load i64, ptr %25, align 8, !tbaa !9, !alias.scope !14542, !noalias !14543
  %.tr.i.i.i.i.i = trunc i64 %26 to i32
  %27 = shl i32 %.tr.i.i.i.i.i, 6
  %28 = or disjoint i32 %27, %24
  store i32 %28, ptr %21, align 4, !tbaa !7, !alias.scope !14543, !noalias !14542
  %29 = getelementptr inbounds nuw i8, ptr %1, i64 16
  %30 = lshr i64 %26, 26
  %31 = trunc i64 %30 to i32
  %32 = and i32 %31, 255
  tail call void @llvm.experimental.noalias.scope.decl(metadata !14544)
  tail call void @llvm.experimental.noalias.scope.decl(metadata !14547)
  %33 = getelementptr inbounds nuw i8, ptr %0, i64 32
  %34 = load i64, ptr %33, align 8, !tbaa !9, !alias.scope !14549, !noalias !14550
  %.tr.i.i.i.i.i.i = trunc i64 %34 to i32
  %35 = shl i32 %.tr.i.i.i.i.i.i, 8
  %36 = or disjoint i32 %35, %32
  store i32 %36, ptr %29, align 4, !tbaa !7, !alias.scope !14550, !noalias !14549
  %37 = getelementptr inbounds nuw i8, ptr %1, i64 20
  %38 = lshr i64 %34, 24
  %39 = trunc i64 %38 to i32
  %40 = and i32 %39, 1023
  store i32 %40, ptr %37, align 4, !tbaa !7, !alias.scope !14550, !noalias !14549
  tail call void @_ZN18duckdb_fastpforlib8internal8UnrollerILt34ELt5EE4PackEPKmPj(ptr noundef nonnull %0, ptr noundef nonnull %37)
  ret void
}